target datalayout = "e-m:e-p270:32:32-p271:32:32-p272:64:64-i64:64-i128:128-f80:128-n8:16:32:64-S128"
target triple = "x86_64-pc-linux-gnu"

%struct.TmToChar = type { %struct.fmt_tm, i32, ptr }
%struct.fmt_tm = type { i32, i32, i64, i32, i32, i32, i32, i32, i64 }
%struct.FunctionCallInfoBaseData = type { ptr, ptr, ptr, i32, i8, i16, [0 x %struct.NullableDatum] }
%struct.NullableDatum = type { i64, i8 }
%struct.varattrib_1b = type { i8, [0 x i8] }
%struct.varattrib_1b_e = type { i8, i8, [0 x i8] }
%struct.anon.1 = type { i32, [0 x i8] }
%struct.pg_itm = type { i32, i32, i32, i64, i32, i32, i32 }
%struct.Interval = type { i64, i32, i32 }

; Function Attrs: inlinehint nounwind uwtable
define internal i64 @PointerGetDatum(ptr noundef %0) #4 {
  %2 = alloca ptr, align 8
  store ptr %0, ptr %2, align 8
  %3 = load ptr, ptr %2, align 8
  %4 = ptrtoint ptr %3 to i64
  ret i64 %4
}

; Function Attrs: inlinehint nounwind uwtable
define internal ptr @DatumGetPointer(i64 noundef %0) #4 {
  %2 = alloca i64, align 8
  store i64 %0, ptr %2, align 8
  %3 = load i64, ptr %2, align 8
  %4 = inttoptr i64 %3 to ptr
  ret ptr %4
}

; Function Attrs: inlinehint nounwind uwtable
define internal ptr @DatumGetIntervalP(i64 noundef %0) #4 {
  %2 = alloca i64, align 8
  store i64 %0, ptr %2, align 8
  %3 = load i64, ptr %2, align 8
  %4 = call ptr @DatumGetPointer(i64 noundef %3)
  ret ptr %4
}

; Function Attrs: nounwind uwtable
define dso_local i64 @interval_to_char(ptr noundef %0) #0 {
  %2 = alloca i64, align 8
  %3 = alloca ptr, align 8
  %4 = alloca ptr, align 8
  %5 = alloca ptr, align 8
  %6 = alloca ptr, align 8
  %7 = alloca %struct.TmToChar, align 8
  %8 = alloca ptr, align 8
  %9 = alloca %struct.pg_itm, align 8
  %10 = alloca ptr, align 8
  %11 = alloca i32, align 4
  store ptr %0, ptr %3, align 8
  call void @llvm.lifetime.start.p0(i64 8, ptr %4) #11
  %12 = load ptr, ptr %3, align 8
  %13 = getelementptr inbounds nuw %struct.FunctionCallInfoBaseData, ptr %12, i32 0, i32 6
  %14 = getelementptr inbounds [0 x %struct.NullableDatum], ptr %13, i64 0, i64 0
  %15 = getelementptr inbounds nuw %struct.NullableDatum, ptr %14, i32 0, i32 0
  %16 = load i64, ptr %15, align 8
  %17 = call ptr @DatumGetIntervalP(i64 noundef %16)
  store ptr %17, ptr %4, align 8
  call void @llvm.lifetime.start.p0(i64 8, ptr %5) #11
  %18 = load ptr, ptr %3, align 8
  %19 = getelementptr inbounds nuw %struct.FunctionCallInfoBaseData, ptr %18, i32 0, i32 6
  %20 = getelementptr inbounds [0 x %struct.NullableDatum], ptr %19, i64 0, i64 1
  %21 = getelementptr inbounds nuw %struct.NullableDatum, ptr %20, i32 0, i32 0
  %22 = load i64, ptr %21, align 8
  %23 = call ptr @DatumGetPointer(i64 noundef %22)
  %24 = call ptr @pg_detoast_datum_packed(ptr noundef %23)
  store ptr %24, ptr %5, align 8
  call void @llvm.lifetime.start.p0(i64 8, ptr %6) #11
  call void @llvm.lifetime.start.p0(i64 64, ptr %7) #11
  call void @llvm.lifetime.start.p0(i64 8, ptr %8) #11
  call void @llvm.lifetime.start.p0(i64 40, ptr %9) #11
  call void @llvm.lifetime.start.p0(i64 8, ptr %10) #11
  store ptr %9, ptr %10, align 8
  %25 = load ptr, ptr %5, align 8
  %26 = getelementptr inbounds nuw %struct.varattrib_1b, ptr %25, i32 0, i32 0
  %27 = load i8, ptr %26, align 1
  %28 = zext i8 %27 to i32
  %29 = icmp eq i32 %28, 1
  br i1 %29, label %30, label %58

30:                                               ; preds = %1
  %31 = load ptr, ptr %5, align 8
  %32 = getelementptr inbounds nuw %struct.varattrib_1b_e, ptr %31, i32 0, i32 1
  %33 = load i8, ptr %32, align 1
  %34 = zext i8 %33 to i32
  %35 = icmp eq i32 %34, 1
  br i1 %35, label %36, label %37

36:                                               ; preds = %30
  br label %54

37:                                               ; preds = %30
  %38 = load ptr, ptr %5, align 8
  %39 = getelementptr inbounds nuw %struct.varattrib_1b_e, ptr %38, i32 0, i32 1
  %40 = load i8, ptr %39, align 1
  %41 = zext i8 %40 to i32
  %42 = and i32 %41, -2
  %43 = icmp eq i32 %42, 2
  br i1 %43, label %44, label %45

44:                                               ; preds = %37
  br label %52

45:                                               ; preds = %37
  %46 = load ptr, ptr %5, align 8
  %47 = getelementptr inbounds nuw %struct.varattrib_1b_e, ptr %46, i32 0, i32 1
  %48 = load i8, ptr %47, align 1
  %49 = zext i8 %48 to i32
  %50 = icmp eq i32 %49, 18
  %51 = select i1 %50, i64 16, i64 0
  br label %52

52:                                               ; preds = %45, %44
  %53 = phi i64 [ 8, %44 ], [ %51, %45 ]
  br label %54

54:                                               ; preds = %52, %36
  %55 = phi i64 [ 8, %36 ], [ %53, %52 ]
  %56 = add i64 2, %55
  %57 = sub i64 %56, 2
  br label %84

58:                                               ; preds = %1
  %59 = load ptr, ptr %5, align 8
  %60 = getelementptr inbounds nuw %struct.varattrib_1b, ptr %59, i32 0, i32 0
  %61 = load i8, ptr %60, align 1
  %62 = zext i8 %61 to i32
  %63 = and i32 %62, 1
  %64 = icmp eq i32 %63, 1
  br i1 %64, label %65, label %74

65:                                               ; preds = %58
  %66 = load ptr, ptr %5, align 8
  %67 = getelementptr inbounds nuw %struct.varattrib_1b, ptr %66, i32 0, i32 0
  %68 = load i8, ptr %67, align 1
  %69 = zext i8 %68 to i32
  %70 = ashr i32 %69, 1
  %71 = and i32 %70, 127
  %72 = sext i32 %71 to i64
  %73 = sub i64 %72, 1
  br label %82

74:                                               ; preds = %58
  %75 = load ptr, ptr %5, align 8
  %76 = getelementptr inbounds nuw %struct.anon.1, ptr %75, i32 0, i32 0
  %77 = load i32, ptr %76, align 4
  %78 = lshr i32 %77, 2
  %79 = and i32 %78, 1073741823
  %80 = sub i32 %79, 4
  %81 = zext i32 %80 to i64
  br label %82

82:                                               ; preds = %74, %65
  %83 = phi i64 [ %73, %65 ], [ %81, %74 ]
  br label %84

84:                                               ; preds = %82, %54
  %85 = phi i64 [ %57, %54 ], [ %83, %82 ]
  %86 = icmp ule i64 %85, 0
  br i1 %86, label %117, label %87

87:                                               ; preds = %84
  %88 = load ptr, ptr %4, align 8
  %89 = getelementptr inbounds nuw %struct.Interval, ptr %88, i32 0, i32 2
  %90 = load i32, ptr %89, align 4
  %91 = icmp eq i32 %90, -2147483648
  br i1 %91, label %92, label %102

92:                                               ; preds = %87
  %93 = load ptr, ptr %4, align 8
  %94 = getelementptr inbounds nuw %struct.Interval, ptr %93, i32 0, i32 1
  %95 = load i32, ptr %94, align 8
  %96 = icmp eq i32 %95, -2147483648
  br i1 %96, label %97, label %102

97:                                               ; preds = %92
  %98 = load ptr, ptr %4, align 8
  %99 = getelementptr inbounds nuw %struct.Interval, ptr %98, i32 0, i32 0
  %100 = load i64, ptr %99, align 8
  %101 = icmp eq i64 %100, -9223372036854775808
  br i1 %101, label %117, label %102

102:                                              ; preds = %97, %92, %87
  %103 = load ptr, ptr %4, align 8
  %104 = getelementptr inbounds nuw %struct.Interval, ptr %103, i32 0, i32 2
  %105 = load i32, ptr %104, align 4
  %106 = icmp eq i32 %105, 2147483647
  br i1 %106, label %107, label %123

107:                                              ; preds = %102
  %108 = load ptr, ptr %4, align 8
  %109 = getelementptr inbounds nuw %struct.Interval, ptr %108, i32 0, i32 1
  %110 = load i32, ptr %109, align 8
  %111 = icmp eq i32 %110, 2147483647
  br i1 %111, label %112, label %123

112:                                              ; preds = %107
  %113 = load ptr, ptr %4, align 8
  %114 = getelementptr inbounds nuw %struct.Interval, ptr %113, i32 0, i32 0
  %115 = load i64, ptr %114, align 8
  %116 = icmp eq i64 %115, 9223372036854775807
  br i1 %116, label %117, label %123

117:                                              ; preds = %112, %97, %84
  br label %118

118:                                              ; preds = %117
  %119 = load ptr, ptr %3, align 8
  %120 = getelementptr inbounds nuw %struct.FunctionCallInfoBaseData, ptr %119, i32 0, i32 4
  store i8 1, ptr %120, align 4
  store i64 0, ptr %2, align 8
  store i32 1, ptr %11, align 4
  br label %208

121:                                              ; No predecessors!
  br label %122

122:                                              ; preds = %121
  br label %123

123:                                              ; preds = %122, %112, %107, %102
  br label %124

124:                                              ; preds = %123
  br label %125

125:                                              ; preds = %124
  %126 = getelementptr inbounds nuw %struct.TmToChar, ptr %7, i32 0, i32 0
  call void @llvm.memset.p0.i64(ptr align 8 %126, i8 0, i64 48, i1 false)
  %127 = getelementptr inbounds nuw %struct.TmToChar, ptr %7, i32 0, i32 0
  %128 = getelementptr inbounds nuw %struct.fmt_tm, ptr %127, i32 0, i32 4
  store i32 1, ptr %128, align 4
  %129 = getelementptr inbounds nuw %struct.TmToChar, ptr %7, i32 0, i32 0
  %130 = getelementptr inbounds nuw %struct.fmt_tm, ptr %129, i32 0, i32 3
  store i32 1, ptr %130, align 8
  br label %131

131:                                              ; preds = %125
  br label %132

132:                                              ; preds = %131
  %133 = getelementptr inbounds nuw %struct.TmToChar, ptr %7, i32 0, i32 1
  store i32 0, ptr %133, align 8
  %134 = getelementptr inbounds nuw %struct.TmToChar, ptr %7, i32 0, i32 2
  store ptr null, ptr %134, align 8
  br label %135

135:                                              ; preds = %132
  br label %136

136:                                              ; preds = %135
  %137 = getelementptr inbounds nuw %struct.TmToChar, ptr %7, i32 0, i32 0
  store ptr %137, ptr %8, align 8
  %138 = load ptr, ptr %4, align 8
  %139 = load ptr, ptr %10, align 8
  %140 = getelementptr inbounds nuw { i64, i64 }, ptr %138, i32 0, i32 0
  %141 = load i64, ptr %140, align 8
  %142 = getelementptr inbounds nuw { i64, i64 }, ptr %138, i32 0, i32 1
  %143 = load i64, ptr %142, align 8
  call void @interval2itm(i64 %141, i64 %143, ptr noundef %139)
  %144 = load ptr, ptr %10, align 8
  %145 = getelementptr inbounds nuw %struct.pg_itm, ptr %144, i32 0, i32 0
  %146 = load i32, ptr %145, align 8
  %147 = getelementptr inbounds nuw %struct.TmToChar, ptr %7, i32 0, i32 1
  store i32 %146, ptr %147, align 8
  %148 = load ptr, ptr %10, align 8
  %149 = getelementptr inbounds nuw %struct.pg_itm, ptr %148, i32 0, i32 1
  %150 = load i32, ptr %149, align 4
  %151 = load ptr, ptr %8, align 8
  %152 = getelementptr inbounds nuw %struct.fmt_tm, ptr %151, i32 0, i32 0
  store i32 %150, ptr %152, align 8
  %153 = load ptr, ptr %10, align 8
  %154 = getelementptr inbounds nuw %struct.pg_itm, ptr %153, i32 0, i32 2
  %155 = load i32, ptr %154, align 8
  %156 = load ptr, ptr %8, align 8
  %157 = getelementptr inbounds nuw %struct.fmt_tm, ptr %156, i32 0, i32 1
  store i32 %155, ptr %157, align 4
  %158 = load ptr, ptr %10, align 8
  %159 = getelementptr inbounds nuw %struct.pg_itm, ptr %158, i32 0, i32 3
  %160 = load i64, ptr %159, align 8
  %161 = load ptr, ptr %8, align 8
  %162 = getelementptr inbounds nuw %struct.fmt_tm, ptr %161, i32 0, i32 2
  store i64 %160, ptr %162, align 8
  %163 = load ptr, ptr %10, align 8
  %164 = getelementptr inbounds nuw %struct.pg_itm, ptr %163, i32 0, i32 4
  %165 = load i32, ptr %164, align 8
  %166 = load ptr, ptr %8, align 8
  %167 = getelementptr inbounds nuw %struct.fmt_tm, ptr %166, i32 0, i32 3
  store i32 %165, ptr %167, align 8
  %168 = load ptr, ptr %10, align 8
  %169 = getelementptr inbounds nuw %struct.pg_itm, ptr %168, i32 0, i32 5
  %170 = load i32, ptr %169, align 4
  %171 = load ptr, ptr %8, align 8
  %172 = getelementptr inbounds nuw %struct.fmt_tm, ptr %171, i32 0, i32 4
  store i32 %170, ptr %172, align 4
  %173 = load ptr, ptr %10, align 8
  %174 = getelementptr inbounds nuw %struct.pg_itm, ptr %173, i32 0, i32 6
  %175 = load i32, ptr %174, align 8
  %176 = load ptr, ptr %8, align 8
  %177 = getelementptr inbounds nuw %struct.fmt_tm, ptr %176, i32 0, i32 5
  store i32 %175, ptr %177, align 8
  %178 = load ptr, ptr %8, align 8
  %179 = getelementptr inbounds nuw %struct.fmt_tm, ptr %178, i32 0, i32 5
  %180 = load i32, ptr %179, align 8
  %181 = mul i32 %180, 12
  %182 = load ptr, ptr %8, align 8
  %183 = getelementptr inbounds nuw %struct.fmt_tm, ptr %182, i32 0, i32 4
  %184 = load i32, ptr %183, align 4
  %185 = add i32 %181, %184
  %186 = mul i32 %185, 30
  %187 = load ptr, ptr %8, align 8
  %188 = getelementptr inbounds nuw %struct.fmt_tm, ptr %187, i32 0, i32 3
  %189 = load i32, ptr %188, align 8
  %190 = add i32 %186, %189
  %191 = load ptr, ptr %8, align 8
  %192 = getelementptr inbounds nuw %struct.fmt_tm, ptr %191, i32 0, i32 7
  store i32 %190, ptr %192, align 8
  %193 = load ptr, ptr %5, align 8
  %194 = load ptr, ptr %3, align 8
  %195 = getelementptr inbounds nuw %struct.FunctionCallInfoBaseData, ptr %194, i32 0, i32 3
  %196 = load i32, ptr %195, align 8
  %197 = call ptr @datetime_to_char_body(ptr noundef %7, ptr noundef %193, i1 noundef zeroext true, i32 noundef %196)
  store ptr %197, ptr %6, align 8
  %198 = icmp ne ptr %197, null
  br i1 %198, label %205, label %199

199:                                              ; preds = %136
  br label %200

200:                                              ; preds = %199
  %201 = load ptr, ptr %3, align 8
  %202 = getelementptr inbounds nuw %struct.FunctionCallInfoBaseData, ptr %201, i32 0, i32 4
  store i8 1, ptr %202, align 4
  store i64 0, ptr %2, align 8
  store i32 1, ptr %11, align 4
  br label %208

203:                                              ; No predecessors!
  br label %204

204:                                              ; preds = %203
  br label %205

205:                                              ; preds = %204, %136
  %206 = load ptr, ptr %6, align 8
  %207 = call i64 @PointerGetDatum(ptr noundef %206)
  store i64 %207, ptr %2, align 8
  store i32 1, ptr %11, align 4
  br label %208

208:                                              ; preds = %205, %200, %118
  call void @llvm.lifetime.end.p0(i64 8, ptr %10) #11
  call void @llvm.lifetime.end.p0(i64 40, ptr %9) #11
  call void @llvm.lifetime.end.p0(i64 8, ptr %8) #11
  call void @llvm.lifetime.end.p0(i64 64, ptr %7) #11
  call void @llvm.lifetime.end.p0(i64 8, ptr %6) #11
  call void @llvm.lifetime.end.p0(i64 8, ptr %5) #11
  call void @llvm.lifetime.end.p0(i64 8, ptr %4) #11
  %209 = load i64, ptr %2, align 8
  ret i64 %209
}