; Function Attrs: nounwind uwtable
define dso_local i64 @interval_to_char(ptr noundef captures(none) %0) local_unnamed_addr #0 {
  %2 = alloca %struct.TmToChar, align 8
  %3 = alloca %struct.pg_itm, align 8
  %4 = getelementptr inbounds nuw i8, ptr %0, i64 32
  %5 = load i64, ptr %4, align 8
  %6 = inttoptr i64 %5 to ptr
  %7 = getelementptr inbounds nuw i8, ptr %0, i64 48
  %8 = load i64, ptr %7, align 8
  %9 = inttoptr i64 %8 to ptr
  %10 = tail call ptr @pg_detoast_datum_packed(ptr noundef %9) #18
  call void @llvm.lifetime.start.p0(i64 64, ptr nonnull %2) #18
  call void @llvm.lifetime.start.p0(i64 40, ptr nonnull %3) #18
  %11 = load i8, ptr %10, align 1
  %12 = zext i8 %11 to i32
  %13 = icmp eq i8 %11, 1
  br i1 %13, label %14, label %19

14:                                               ; preds = %1
  %15 = getelementptr inbounds nuw i8, ptr %10, i64 1
  %16 = load i8, ptr %15, align 1
  %17 = icmp eq i8 %16, 18
  %18 = select i1 %17, i64 16, i64 0
  %.off = add i8 %16, -1
  %switch = icmp ult i8 %.off, 3
  br i1 %switch, label %.thread, label %30

19:                                               ; preds = %1
  %20 = and i32 %12, 1
  %.not = icmp eq i32 %20, 0
  br i1 %.not, label %25, label %21

21:                                               ; preds = %19
  %22 = lshr i32 %12, 1
  %23 = zext nneg i32 %22 to i64
  %24 = add nsw i64 %23, -1
  br label %30

25:                                               ; preds = %19
  %26 = load i32, ptr %10, align 4
  %27 = lshr i32 %26, 2
  %28 = add nsw i32 %27, -4
  %29 = zext i32 %28 to i64
  br label %30

30:                                               ; preds = %14, %21, %25
  %31 = phi i64 [ %18, %14 ], [ %24, %21 ], [ %29, %25 ]
  %32 = icmp eq i64 %31, 0
  br i1 %32, label %45, label %.thread

.thread:                                          ; preds = %14, %30
  %33 = getelementptr inbounds nuw i8, ptr %6, i64 12
  %34 = load i32, ptr %33, align 4
  switch i32 %34, label %.thread..thread44_crit_edge [
    i32 -2147483648, label %35
    i32 2147483647, label %40
  ]

.thread..thread44_crit_edge:                      ; preds = %.thread
  %.pre = load i64, ptr %6, align 8
  br label %.thread44

35:                                               ; preds = %.thread
  %36 = getelementptr inbounds nuw i8, ptr %6, i64 8
  %37 = load i32, ptr %36, align 8
  %38 = icmp eq i32 %37, -2147483648
  %.pre45 = load i64, ptr %6, align 8
  %39 = icmp eq i64 %.pre45, -9223372036854775808
  %or.cond = select i1 %38, i1 %39, i1 false
  br i1 %or.cond, label %45, label %.thread44

40:                                               ; preds = %.thread
  %41 = getelementptr inbounds nuw i8, ptr %6, i64 8
  %42 = load i32, ptr %41, align 8
  %43 = icmp eq i32 %42, 2147483647
  %.pre46 = load i64, ptr %6, align 8
  %44 = icmp eq i64 %.pre46, 9223372036854775807
  %or.cond47 = select i1 %43, i1 %44, i1 false
  br i1 %or.cond47, label %45, label %.thread44

45:                                               ; preds = %40, %35, %30
  %46 = getelementptr inbounds nuw i8, ptr %0, i64 28
  store i8 1, ptr %46, align 4
  br label %83

.thread44:                                        ; preds = %.thread..thread44_crit_edge, %35, %40
  %47 = phi i64 [ %.pre, %.thread..thread44_crit_edge ], [ %.pre45, %35 ], [ %.pre46, %40 ]
  %48 = getelementptr inbounds nuw i8, ptr %2, i64 24
  call void @llvm.memset.p0.i64(ptr noundef nonnull align 8 dereferenceable(48) %48, i8 0, i64 24, i1 false)
  %49 = getelementptr inbounds nuw i8, ptr %2, i64 20
  %50 = getelementptr inbounds nuw i8, ptr %2, i64 16
  %51 = getelementptr inbounds nuw i8, ptr %2, i64 48
  %52 = getelementptr inbounds nuw i8, ptr %2, i64 56
  store ptr null, ptr %52, align 8
  %53 = getelementptr inbounds nuw i8, ptr %6, i64 8
  %54 = load i64, ptr %53, align 8
  call void @interval2itm(i64 %47, i64 %54, ptr noundef nonnull %3) #18
  %55 = load i32, ptr %3, align 8
  store i32 %55, ptr %51, align 8
  %56 = getelementptr inbounds nuw i8, ptr %3, i64 4
  %57 = load i32, ptr %56, align 4
  store i32 %57, ptr %2, align 8
  %58 = getelementptr inbounds nuw i8, ptr %3, i64 8
  %59 = load i32, ptr %58, align 8
  %60 = getelementptr inbounds nuw i8, ptr %2, i64 4
  store i32 %59, ptr %60, align 4
  %61 = getelementptr inbounds nuw i8, ptr %3, i64 16
  %62 = load i64, ptr %61, align 8
  %63 = getelementptr inbounds nuw i8, ptr %2, i64 8
  store i64 %62, ptr %63, align 8
  %64 = getelementptr inbounds nuw i8, ptr %3, i64 24
  %65 = load i32, ptr %64, align 8
  store i32 %65, ptr %50, align 8
  %66 = getelementptr inbounds nuw i8, ptr %3, i64 28
  %67 = load i32, ptr %66, align 4
  store i32 %67, ptr %49, align 4
  %68 = getelementptr inbounds nuw i8, ptr %3, i64 32
  %69 = load i32, ptr %68, align 8
  %70 = getelementptr inbounds nuw i8, ptr %2, i64 24
  store i32 %69, ptr %70, align 8
  %71 = mul i32 %69, 12
  %72 = add i32 %71, %67
  %73 = mul i32 %72, 30
  %74 = add i32 %73, %65
  %75 = getelementptr inbounds nuw i8, ptr %2, i64 32
  store i32 %74, ptr %75, align 8
  %76 = getelementptr inbounds nuw i8, ptr %0, i64 24
  %77 = load i32, ptr %76, align 8
  %78 = call fastcc ptr @datetime_to_char_body(ptr noundef %2, ptr noundef nonnull %10, i1 noundef zeroext true, i32 noundef %77)
  %.not42 = icmp eq ptr %78, null
  br i1 %.not42, label %79, label %81

79:                                               ; preds = %.thread44
  %80 = getelementptr inbounds nuw i8, ptr %0, i64 28
  store i8 1, ptr %80, align 4
  br label %83

81:                                               ; preds = %.thread44
  %82 = ptrtoint ptr %78 to i64
  br label %83

83:                                               ; preds = %81, %79, %45
  %.0 = phi i64 [ 0, %45 ], [ %82, %81 ], [ 0, %79 ]
  call void @llvm.lifetime.end.p0(i64 40, ptr nonnull %3) #18
  call void @llvm.lifetime.end.p0(i64 64, ptr nonnull %2) #18
  ret i64 %.0
}